target datalayout = "e-m:e-p270:32:32-p271:32:32-p272:64:64-i64:64-i128:128-f80:128-n8:16:32:64-S128"
target triple = "x86_64-pc-linux-gnu"

@_ZL8gService = internal global ptr null, align 8

; Function Attrs: inlinehint mustprogress nounwind uwtable
define internal noundef signext i8 @_ZL9U_FAILURE10UErrorCode(i32 noundef %0) #2 {
  %2 = alloca i32, align 4
  store i32 %0, ptr %2, align 4, !tbaa !15
  %3 = load i32, ptr %2, align 4, !tbaa !15
  %4 = icmp sgt i32 %3, 0
  %5 = zext i1 %4 to i8
  ret i8 %5
}

; Function Attrs: mustprogress uwtable
define noundef signext i8 @_ZN6icu_7712NumberFormat10unregisterEPKvR10UErrorCode(ptr noundef %0, ptr noundef nonnull align 4 dereferenceable(4) %1) #1 align 2 {
  %3 = alloca i8, align 1
  %4 = alloca ptr, align 8
  %5 = alloca ptr, align 8
  store ptr %0, ptr %4, align 8, !tbaa !22
  store ptr %1, ptr %5, align 8, !tbaa !22
  %6 = load ptr, ptr %5, align 8, !tbaa !22
  %7 = load i32, ptr %6, align 4, !tbaa !15
  %8 = call noundef signext i8 @_ZL9U_FAILURE10UErrorCode(i32 noundef %7)
  %9 = icmp ne i8 %8, 0
  br i1 %9, label %10, label %11

10:                                               ; preds = %2
  store i8 0, ptr %3, align 1
  br label %24

11:                                               ; preds = %2
  %12 = call noundef signext i8 @_ZN6icu_77L11haveServiceEv()
  %13 = icmp ne i8 %12, 0
  br i1 %13, label %14, label %22

14:                                               ; preds = %11
  %15 = load ptr, ptr @_ZL8gService, align 8, !tbaa !139
  %16 = load ptr, ptr %4, align 8, !tbaa !22
  %17 = load ptr, ptr %5, align 8, !tbaa !22
  %18 = load ptr, ptr %15, align 8, !tbaa !30
  %19 = getelementptr inbounds ptr, ptr %18, i64 10
  %20 = load ptr, ptr %19, align 8
  %21 = call noundef signext i8 %20(ptr noundef nonnull align 8 dereferenceable(120) %15, ptr noundef %16, ptr noundef nonnull align 4 dereferenceable(4) %17)
  store i8 %21, ptr %3, align 1
  br label %24

22:                                               ; preds = %11
  %23 = load ptr, ptr %5, align 8, !tbaa !22
  store i32 1, ptr %23, align 4, !tbaa !15
  store i8 0, ptr %3, align 1
  br label %24

24:                                               ; preds = %22, %14, %10
  %25 = load i8, ptr %3, align 1
  ret i8 %25
}