; Function Attrs: mustprogress uwtable
define noundef signext i8 @_ZN6icu_7712NumberFormat10unregisterEPKvR10UErrorCode(ptr noundef %0, ptr noundef nonnull align 4 dereferenceable(4) %1) local_unnamed_addr #1 align 2 {
  %3 = load i32, ptr %1, align 4, !tbaa !13
  %4 = icmp slt i32 %3, 1
  br i1 %4, label %5, label %14

5:                                                ; preds = %2
  %6 = tail call fastcc noundef signext i8 @_ZN6icu_77L11haveServiceEv()
  %.not4 = icmp eq i8 %6, 0
  br i1 %.not4, label %13, label %7

7:                                                ; preds = %5
  %8 = load ptr, ptr @_ZL8gService, align 8, !tbaa !66
  %9 = load ptr, ptr %8, align 8, !tbaa !15
  %10 = getelementptr inbounds nuw i8, ptr %9, i64 80
  %11 = load ptr, ptr %10, align 8
  %12 = tail call noundef signext i8 %11(ptr noundef nonnull align 8 dereferenceable(120) %8, ptr noundef %0, ptr noundef nonnull align 4 dereferenceable(4) %1)
  br label %14

13:                                               ; preds = %5
  store i32 1, ptr %1, align 4, !tbaa !13
  br label %14

14:                                               ; preds = %2, %13, %7
  %.0 = phi i8 [ %12, %7 ], [ 0, %13 ], [ 0, %2 ]
  ret i8 %.0
}